; Function Attrs: nounwind sspstrong uwtable
define internal fastcc range(i64 1, 0) i64 @io_buffer_read_s32(ptr noundef readonly captures(none) %0, i64 noundef %1, ptr noundef nonnull captures(none) %2) unnamed_addr #0 {
  %4 = load i64, ptr %2, align 8, !tbaa !22
  %5 = add i64 %4, 4
  %6 = icmp ugt i64 %5, %1
  br i1 %6, label %7, label %io_buffer_validate_type.exit

7:                                                ; preds = %3
  %8 = load i64, ptr @rb_eArgError, align 8, !tbaa !22
  tail call void (i64, ptr, ...) @rb_raise(i64 noundef %8, ptr noundef nonnull @.str.138, i64 noundef %5, i64 noundef %1) #26
  unreachable

io_buffer_validate_type.exit:                     ; preds = %3
  %9 = getelementptr i8, ptr %0, i64 %4
  %10 = load i32, ptr %9, align 1
  store i64 %5, ptr %2, align 8, !tbaa !22
  %11 = sext i32 %10 to i64
  %12 = shl nsw i64 %11, 1
  %13 = or disjoint i64 %12, 1
  ret i64 %13
}